target datalayout = "e-m:e-p270:32:32-p271:32:32-p272:64:64-i64:64-i128:128-f80:128-n8:16:32:64-S128"
target triple = "x86_64-unknown-linux-gnu"

%class.aiVector2t = type { float, float }

; Function Attrs: mustprogress nounwind uwtable
define linkonce_odr noundef float @_ZSt4sqrtf(float noundef %__x) #0 comdat {
entry:
  %__x.addr = alloca float, align 4
  store float %__x, ptr %__x.addr, align 4
  %0 = load float, ptr %__x.addr, align 4
  %call = call float @sqrtf(float noundef %0) #3
  ret float %call
}

; Function Attrs: mustprogress nounwind uwtable
define linkonce_odr hidden noundef float @_ZNK10aiVector2tIfE12SquareLengthEv(ptr noundef nonnull align 4 dereferenceable(8) %this) #0 comdat align 2 {
entry:
  %this.addr = alloca ptr, align 8
  store ptr %this, ptr %this.addr, align 8
  %this1 = load ptr, ptr %this.addr, align 8
  %x = getelementptr inbounds %class.aiVector2t, ptr %this1, i32 0, i32 0
  %0 = load float, ptr %x, align 4
  %x2 = getelementptr inbounds %class.aiVector2t, ptr %this1, i32 0, i32 0
  %1 = load float, ptr %x2, align 4
  %y = getelementptr inbounds %class.aiVector2t, ptr %this1, i32 0, i32 1
  %2 = load float, ptr %y, align 4
  %y3 = getelementptr inbounds %class.aiVector2t, ptr %this1, i32 0, i32 1
  %3 = load float, ptr %y3, align 4
  %mul4 = fmul float %2, %3
  %4 = call float @llvm.fmuladd.f32(float %0, float %1, float %mul4)
  ret float %4
}

; Function Attrs: mustprogress nounwind uwtable
define linkonce_odr hidden noundef nonnull align 4 dereferenceable(8) ptr @_ZN10aiVector2tIfEdVEf(ptr noundef nonnull align 4 dereferenceable(8) %this, float noundef %f) #0 comdat align 2 {
entry:
  %this.addr = alloca ptr, align 8
  %f.addr = alloca float, align 4
  store ptr %this, ptr %this.addr, align 8
  store float %f, ptr %f.addr, align 4
  %this1 = load ptr, ptr %this.addr, align 8
  %0 = load float, ptr %f.addr, align 4
  %x = getelementptr inbounds %class.aiVector2t, ptr %this1, i32 0, i32 0
  %1 = load float, ptr %x, align 4
  %div = fdiv float %1, %0
  store float %div, ptr %x, align 4
  %2 = load float, ptr %f.addr, align 4
  %y = getelementptr inbounds %class.aiVector2t, ptr %this1, i32 0, i32 1
  %3 = load float, ptr %y, align 4
  %div2 = fdiv float %3, %2
  store float %div2, ptr %y, align 4
  ret ptr %this1
}

; Function Attrs: mustprogress uwtable
define linkonce_odr hidden noundef float @_ZNK10aiVector2tIfE6LengthEv(ptr noundef nonnull align 4 dereferenceable(8) %this) #5 comdat align 2 {
entry:
  %this.addr = alloca ptr, align 8
  store ptr %this, ptr %this.addr, align 8
  %this1 = load ptr, ptr %this.addr, align 8
  %call = call noundef float @_ZNK10aiVector2tIfE12SquareLengthEv(ptr noundef nonnull align 4 dereferenceable(8) %this1)
  %call2 = call noundef float @_ZSt4sqrtf(float noundef %call)
  ret float %call2
}

; Function Attrs: mustprogress uwtable
define linkonce_odr hidden noundef nonnull align 4 dereferenceable(8) ptr @_ZN10aiVector2tIfE9NormalizeEv(ptr noundef nonnull align 4 dereferenceable(8) %this) #5 comdat align 2 {
entry:
  %this.addr = alloca ptr, align 8
  store ptr %this, ptr %this.addr, align 8
  %this1 = load ptr, ptr %this.addr, align 8
  %call = call noundef float @_ZNK10aiVector2tIfE6LengthEv(ptr noundef nonnull align 4 dereferenceable(8) %this1)
  %call2 = call noundef nonnull align 4 dereferenceable(8) ptr @_ZN10aiVector2tIfEdVEf(ptr noundef nonnull align 4 dereferenceable(8) %this1, float noundef %call)
  ret ptr %this1
}

; Function Attrs: mustprogress uwtable
define void @aiVector2Normalize(ptr noundef %v) #5 {
entry:
  %v.addr = alloca ptr, align 8
  store ptr %v, ptr %v.addr, align 8
  %0 = load ptr, ptr %v.addr, align 8
  %call = call noundef nonnull align 4 dereferenceable(8) ptr @_ZN10aiVector2tIfE9NormalizeEv(ptr noundef nonnull align 4 dereferenceable(8) %0)
  ret void
}