; Function Attrs: mustprogress nofree norecurse nosync nounwind willreturn memory(argmem: readwrite) uwtable
define void @aiVector2Normalize(ptr nocapture noundef %v) local_unnamed_addr #11 {
entry:
  %0 = load <2 x float>, ptr %v, align 4
  %1 = fmul <2 x float> %0, %0
  %mul4.i.i.i = extractelement <2 x float> %1, i64 1
  %2 = extractelement <2 x float> %0, i64 0
  %3 = tail call noundef float @llvm.fmuladd.f32(float %2, float %2, float %mul4.i.i.i)
  %sqrt.i.i = tail call noundef float @llvm.sqrt.f32(float %3)
  %4 = insertelement <2 x float> poison, float %sqrt.i.i, i64 0
  %5 = shufflevector <2 x float> %4, <2 x float> poison, <2 x i32> zeroinitializer
  %6 = fdiv <2 x float> %0, %5
  store <2 x float> %6, ptr %v, align 4
  ret void
}